; Function Attrs: nounwind uwtable
define void @lv_table_set_column_width(ptr noundef %0, i32 noundef %1, i32 noundef %2) local_unnamed_addr #0 {
  %.not = icmp eq ptr %0, null
  br i1 %.not, label %.preheader, label %4

.preheader:                                       ; preds = %3, %.preheader
  br label %.preheader

4:                                                ; preds = %3
  %5 = getelementptr inbounds nuw i8, ptr %0, i64 64
  %6 = load i32, ptr %5, align 8, !tbaa !3
  %.not10 = icmp ult i32 %1, %6
  br i1 %.not10, label %9, label %7

7:                                                ; preds = %4
  %8 = add i32 %1, 1
  tail call void @lv_table_set_column_count(ptr noundef nonnull %0, i32 noundef %8)
  br label %9

9:                                                ; preds = %7, %4
  %10 = getelementptr inbounds nuw i8, ptr %0, i64 88
  %11 = load ptr, ptr %10, align 8, !tbaa !19
  %12 = zext i32 %1 to i64
  %13 = getelementptr inbounds nuw i32, ptr %11, i64 %12
  store i32 %2, ptr %13, align 4, !tbaa !21
  tail call fastcc void @refr_size_form_row(ptr noundef nonnull %0)
  ret void
}